target datalayout = "e-m:e-p270:32:32-p271:32:32-p272:64:64-i64:64-i128:128-f80:128-n8:16:32:64-S128"
target triple = "x86_64-pc-linux-gnu"

%"class.cv::xfeatures2d::DAISY_Impl" = type { %"class.cv::xfeatures2d::DAISY", float, i32, i32, i32, i32, i32, i32, i32, i8, i8, i8, i8, %"class.cv::Mat", %"class.cv::Mat", %"class.cv::Rect_", %"class.std::vector.0", %"class.cv::Mat", %"class.cv::Mat", %"class.cv::Mat", %"class.cv::Mat", %"class.cv::Mat", [360 x double] }
%"class.cv::xfeatures2d::DAISY" = type { %"class.cv::Feature2D" }
%"class.cv::Feature2D" = type { %"class.cv::Algorithm" }
%"class.cv::Algorithm" = type { ptr }
%"class.cv::Rect_" = type { i32, i32, i32, i32 }
%"class.std::vector.0" = type { %"struct.std::_Vector_base.1" }
%"struct.std::_Vector_base.1" = type { %"struct.std::_Vector_base<cv::Mat, std::allocator<cv::Mat>>::_Vector_impl" }
%"struct.std::_Vector_base<cv::Mat, std::allocator<cv::Mat>>::_Vector_impl" = type { %"struct.std::_Vector_base<cv::Mat, std::allocator<cv::Mat>>::_Vector_impl_data" }
%"struct.std::_Vector_base<cv::Mat, std::allocator<cv::Mat>>::_Vector_impl_data" = type { ptr, ptr, ptr }
%"class.cv::Mat" = type { i32, i32, i32, i32, ptr, ptr, ptr, ptr, ptr, ptr, %"struct.cv::MatSize", %"struct.cv::MatStep" }
%"struct.cv::MatSize" = type { ptr }
%"struct.cv::MatStep" = type { ptr, [2 x i64] }

; Function Attrs: mustprogress uwtable
define hidden void @_ZNK2cv11xfeatures2d10DAISY_Impl25GetUnnormalizedDescriptorEddiPf(ptr noundef nonnull align 8 dereferenceable(3640) %0, double noundef %1, double noundef %2, i32 noundef %3, ptr noundef %4) unnamed_addr #4 align 2 {
  %6 = alloca ptr, align 8
  %7 = alloca double, align 8
  %8 = alloca double, align 8
  %9 = alloca i32, align 4
  %10 = alloca ptr, align 8
  store ptr %0, ptr %6, align 8, !tbaa !18
  store double %1, ptr %7, align 8, !tbaa !7
  store double %2, ptr %8, align 8, !tbaa !7
  store i32 %3, ptr %9, align 4, !tbaa !3
  store ptr %4, ptr %10, align 8, !tbaa !20
  %11 = load ptr, ptr %6, align 8
  %12 = load double, ptr %7, align 8, !tbaa !7
  %13 = load double, ptr %8, align 8, !tbaa !7
  %14 = load i32, ptr %9, align 4, !tbaa !3
  %15 = load ptr, ptr %10, align 8, !tbaa !20
  %16 = getelementptr inbounds nuw %"class.cv::xfeatures2d::DAISY_Impl", ptr %11, i32 0, i32 16
  %17 = getelementptr inbounds nuw %"class.cv::xfeatures2d::DAISY_Impl", ptr %11, i32 0, i32 19
  %18 = getelementptr inbounds nuw %"class.cv::xfeatures2d::DAISY_Impl", ptr %11, i32 0, i32 22
  %19 = getelementptr inbounds [360 x double], ptr %18, i64 0, i64 0
  %20 = getelementptr inbounds nuw %"class.cv::xfeatures2d::DAISY_Impl", ptr %11, i32 0, i32 3
  %21 = load i32, ptr %20, align 8, !tbaa !22
  %22 = getelementptr inbounds nuw %"class.cv::xfeatures2d::DAISY_Impl", ptr %11, i32 0, i32 11
  %23 = load i8, ptr %22, align 2, !tbaa !46, !range !47, !noundef !48
  %24 = trunc i8 %23 to i1
  call void @_ZN2cv11xfeatures2dL27get_unnormalized_descriptorEddiPfPKSt6vectorINS_3MatESaIS3_EEPKS3_PKdib(double noundef %12, double noundef %13, i32 noundef %14, ptr noundef %15, ptr noundef %16, ptr noundef %17, ptr noundef %19, i32 noundef %21, i1 noundef zeroext %24)
  ret void
}