; Function Attrs: mustprogress uwtable
define hidden void @_ZNK2cv11xfeatures2d10DAISY_Impl25GetUnnormalizedDescriptorEddiPf(ptr noundef nonnull align 8 dereferenceable(3640) %0, double noundef %1, double noundef %2, i32 noundef %3, ptr noundef %4) unnamed_addr #1 align 2 {
  %6 = getelementptr inbounds nuw i8, ptr %0, i64 256
  %7 = getelementptr inbounds nuw i8, ptr %0, i64 472
  %8 = getelementptr inbounds nuw i8, ptr %0, i64 760
  %9 = getelementptr inbounds nuw i8, ptr %0, i64 16
  %10 = load i32, ptr %9, align 8, !tbaa !3
  %11 = getelementptr inbounds nuw i8, ptr %0, i64 42
  %12 = load i8, ptr %11, align 2, !tbaa !31, !range !32, !noundef !33
  %13 = trunc nuw i8 %12 to i1
  tail call fastcc void @_ZN2cv11xfeatures2dL27get_unnormalized_descriptorEddiPfPKSt6vectorINS_3MatESaIS3_EEPKS3_PKdib(double noundef %1, double noundef %2, i32 noundef %3, ptr noundef %4, ptr noundef nonnull %6, ptr noundef nonnull %7, ptr noundef nonnull %8, i32 noundef %10, i1 noundef zeroext %13)
  ret void
}